
phase9.o:     file format elf64-x86-64


Disassembly of section .text:

0000000000000000 <dummy>:
   0:	f3 0f 1e fa          	endbr64 
   4:	55                   	push   rbp
   5:	48 89 e5             	mov    rbp,rsp
   8:	48 89 7d e8          	mov    QWORD PTR [rbp-0x18],rdi
   c:	89 75 e4             	mov    DWORD PTR [rbp-0x1c],esi
   f:	8b 45 e4             	mov    eax,DWORD PTR [rbp-0x1c]
  12:	83 c0 4f             	add    eax,0x4f
  15:	88 45 fe             	mov    BYTE PTR [rbp-0x2],al
  18:	8b 45 e4             	mov    eax,DWORD PTR [rbp-0x1c]
  1b:	83 c0 34             	add    eax,0x34
  1e:	88 45 ff             	mov    BYTE PTR [rbp-0x1],al
  21:	48 8b 45 e8          	mov    rax,QWORD PTR [rbp-0x18]
  25:	c6 00 50             	mov    BYTE PTR [rax],0x50
  28:	48 8b 45 e8          	mov    rax,QWORD PTR [rbp-0x18]
  2c:	0f b6 00             	movzx  eax,BYTE PTR [rax]
  2f:	83 c0 03             	add    eax,0x3
  32:	89 c2                	mov    edx,eax
  34:	48 8b 45 e8          	mov    rax,QWORD PTR [rbp-0x18]
  38:	88 10                	mov    BYTE PTR [rax],dl
  3a:	8b 45 e4             	mov    eax,DWORD PTR [rbp-0x1c]
  3d:	8d 50 70             	lea    edx,[rax+0x70]
  40:	48 8b 45 e8          	mov    rax,QWORD PTR [rbp-0x18]
  44:	48 83 c0 01          	add    rax,0x1
  48:	88 10                	mov    BYTE PTR [rax],dl
  4a:	48 8b 45 e8          	mov    rax,QWORD PTR [rbp-0x18]
  4e:	48 83 c0 02          	add    rax,0x2
  52:	c6 00 26             	mov    BYTE PTR [rax],0x26
  55:	48 8b 45 e8          	mov    rax,QWORD PTR [rbp-0x18]
  59:	48 83 c0 02          	add    rax,0x2
  5d:	0f b6 00             	movzx  eax,BYTE PTR [rax]
  60:	89 c2                	mov    edx,eax
  62:	89 d0                	mov    eax,edx
  64:	01 c0                	add    eax,eax
  66:	01 c2                	add    edx,eax
  68:	48 8b 45 e8          	mov    rax,QWORD PTR [rbp-0x18]
  6c:	48 83 c0 02          	add    rax,0x2
  70:	88 10                	mov    BYTE PTR [rax],dl
  72:	0f b6 45 ff          	movzx  eax,BYTE PTR [rbp-0x1]
  76:	8d 50 fd             	lea    edx,[rax-0x3]
  79:	48 8b 45 e8          	mov    rax,QWORD PTR [rbp-0x18]
  7d:	48 83 c0 03          	add    rax,0x3
  81:	88 10                	mov    BYTE PTR [rax],dl
  83:	48 8b 45 e8          	mov    rax,QWORD PTR [rbp-0x18]
  87:	48 83 c0 04          	add    rax,0x4
  8b:	c6 00 69             	mov    BYTE PTR [rax],0x69
  8e:	48 8b 45 e8          	mov    rax,QWORD PTR [rbp-0x18]
  92:	48 83 c0 04          	add    rax,0x4
  96:	0f b6 10             	movzx  edx,BYTE PTR [rax]
  99:	48 8b 45 e8          	mov    rax,QWORD PTR [rbp-0x18]
  9d:	48 83 c0 04          	add    rax,0x4
  a1:	83 f2 07             	xor    edx,0x7
  a4:	88 10                	mov    BYTE PTR [rax],dl
  a6:	48 8b 45 e8          	mov    rax,QWORD PTR [rbp-0x18]
  aa:	48 83 c0 05          	add    rax,0x5
  ae:	c6 00 4b             	mov    BYTE PTR [rax],0x4b
  b1:	8b 45 e4             	mov    eax,DWORD PTR [rbp-0x1c]
  b4:	8d 50 4c             	lea    edx,[rax+0x4c]
  b7:	48 8b 45 e8          	mov    rax,QWORD PTR [rbp-0x18]
  bb:	48 83 c0 06          	add    rax,0x6
  bf:	88 10                	mov    BYTE PTR [rax],dl
  c1:	48 8b 45 e8          	mov    rax,QWORD PTR [rbp-0x18]
  c5:	48 83 c0 07          	add    rax,0x7
  c9:	c6 00 33             	mov    BYTE PTR [rax],0x33
  cc:	0f b6 45 fe          	movzx  eax,BYTE PTR [rbp-0x2]
  d0:	8d 50 10             	lea    edx,[rax+0x10]
  d3:	48 8b 45 e8          	mov    rax,QWORD PTR [rbp-0x18]
  d7:	48 83 c0 08          	add    rax,0x8
  db:	88 10                	mov    BYTE PTR [rax],dl
  dd:	48 8b 45 e8          	mov    rax,QWORD PTR [rbp-0x18]
  e1:	48 8d 50 09          	lea    rdx,[rax+0x9]
  e5:	0f b6 45 fe          	movzx  eax,BYTE PTR [rbp-0x2]
  e9:	88 02                	mov    BYTE PTR [rdx],al
  eb:	48 8b 45 e8          	mov    rax,QWORD PTR [rbp-0x18]
  ef:	48 83 c0 0a          	add    rax,0xa
  f3:	c6 00 17             	mov    BYTE PTR [rax],0x17
  f6:	48 8b 45 e8          	mov    rax,QWORD PTR [rbp-0x18]
  fa:	48 83 c0 0a          	add    rax,0xa
  fe:	0f b6 00             	movzx  eax,BYTE PTR [rax]
 101:	89 c2                	mov    edx,eax
 103:	0f b6 45 fe          	movzx  eax,BYTE PTR [rbp-0x2]
 107:	01 c2                	add    edx,eax
 109:	48 8b 45 e8          	mov    rax,QWORD PTR [rbp-0x18]
 10d:	48 83 c0 0a          	add    rax,0xa
 111:	88 10                	mov    BYTE PTR [rax],dl
 113:	8b 45 e4             	mov    eax,DWORD PTR [rbp-0x1c]
 116:	8d 50 5f             	lea    edx,[rax+0x5f]
 119:	48 8b 45 e8          	mov    rax,QWORD PTR [rbp-0x18]
 11d:	48 83 c0 0b          	add    rax,0xb
 121:	88 10                	mov    BYTE PTR [rax],dl
 123:	48 8b 45 e8          	mov    rax,QWORD PTR [rbp-0x18]
 127:	48 83 c0 0c          	add    rax,0xc
 12b:	c6 00 43             	mov    BYTE PTR [rax],0x43
 12e:	48 8b 45 e8          	mov    rax,QWORD PTR [rbp-0x18]
 132:	48 83 c0 0d          	add    rax,0xd
 136:	c6 00 19             	mov    BYTE PTR [rax],0x19
 139:	48 8b 45 e8          	mov    rax,QWORD PTR [rbp-0x18]
 13d:	48 83 c0 0d          	add    rax,0xd
 141:	0f b6 00             	movzx  eax,BYTE PTR [rax]
 144:	89 c2                	mov    edx,eax
 146:	0f b6 45 fe          	movzx  eax,BYTE PTR [rbp-0x2]
 14a:	01 c2                	add    edx,eax
 14c:	48 8b 45 e8          	mov    rax,QWORD PTR [rbp-0x18]
 150:	48 83 c0 0d          	add    rax,0xd
 154:	88 10                	mov    BYTE PTR [rax],dl
 156:	48 8b 45 e8          	mov    rax,QWORD PTR [rbp-0x18]
 15a:	48 83 c0 0e          	add    rax,0xe
 15e:	c6 00 4f             	mov    BYTE PTR [rax],0x4f
 161:	8b 45 e4             	mov    eax,DWORD PTR [rbp-0x1c]
 164:	8d 50 63             	lea    edx,[rax+0x63]
 167:	48 8b 45 e8          	mov    rax,QWORD PTR [rbp-0x18]
 16b:	48 83 c0 0f          	add    rax,0xf
 16f:	88 10                	mov    BYTE PTR [rax],dl
 171:	0f b6 45 fe          	movzx  eax,BYTE PTR [rbp-0x2]
 175:	8d 50 20             	lea    edx,[rax+0x20]
 178:	48 8b 45 e8          	mov    rax,QWORD PTR [rbp-0x18]
 17c:	48 83 c0 10          	add    rax,0x10
 180:	88 10                	mov    BYTE PTR [rax],dl
 182:	48 8b 45 e8          	mov    rax,QWORD PTR [rbp-0x18]
 186:	48 83 c0 11          	add    rax,0x11
 18a:	c6 00 3c             	mov    BYTE PTR [rax],0x3c
 18d:	48 8b 45 e8          	mov    rax,QWORD PTR [rbp-0x18]
 191:	48 83 c0 11          	add    rax,0x11
 195:	0f b6 00             	movzx  eax,BYTE PTR [rax]
 198:	8d 50 10             	lea    edx,[rax+0x10]
 19b:	48 8b 45 e8          	mov    rax,QWORD PTR [rbp-0x18]
 19f:	48 83 c0 11          	add    rax,0x11
 1a3:	88 10                	mov    BYTE PTR [rax],dl
 1a5:	48 8b 45 e8          	mov    rax,QWORD PTR [rbp-0x18]
 1a9:	48 8d 50 12          	lea    rdx,[rax+0x12]
 1ad:	0f b6 45 ff          	movzx  eax,BYTE PTR [rbp-0x1]
 1b1:	88 02                	mov    BYTE PTR [rdx],al
 1b3:	8b 45 e4             	mov    eax,DWORD PTR [rbp-0x1c]
 1b6:	8d 50 54             	lea    edx,[rax+0x54]
 1b9:	48 8b 45 e8          	mov    rax,QWORD PTR [rbp-0x18]
 1bd:	48 83 c0 13          	add    rax,0x13
 1c1:	88 10                	mov    BYTE PTR [rax],dl
 1c3:	8b 45 e4             	mov    eax,DWORD PTR [rbp-0x1c]
 1c6:	8d 50 65             	lea    edx,[rax+0x65]
 1c9:	48 8b 45 e8          	mov    rax,QWORD PTR [rbp-0x18]
 1cd:	48 83 c0 14          	add    rax,0x14
 1d1:	88 10                	mov    BYTE PTR [rax],dl
 1d3:	48 8b 45 e8          	mov    rax,QWORD PTR [rbp-0x18]
 1d7:	48 83 c0 15          	add    rax,0x15
 1db:	c6 00 00             	mov    BYTE PTR [rax],0x0
 1de:	48 8b 45 e8          	mov    rax,QWORD PTR [rbp-0x18]
 1e2:	5d                   	pop    rbp
 1e3:	c3                   	ret    

00000000000001e4 <main>:
 1e4:	f3 0f 1e fa          	endbr64 
 1e8:	55                   	push   rbp
 1e9:	48 89 e5             	mov    rbp,rsp
 1ec:	48 81 ec 20 02 00 00 	sub    rsp,0x220
 1f3:	64 48 8b 04 25 28 00 	mov    rax,QWORD PTR fs:0x28
 1fa:	00 00 
 1fc:	48 89 45 f8          	mov    QWORD PTR [rbp-0x8],rax
 200:	31 c0                	xor    eax,eax
 202:	48 8d 85 00 fe ff ff 	lea    rax,[rbp-0x200]
 209:	be 00 00 00 00       	mov    esi,0x0
 20e:	48 89 c7             	mov    rdi,rax
 211:	e8 00 00 00 00       	call   216 <main+0x32>
 216:	48 89 85 f8 fd ff ff 	mov    QWORD PTR [rbp-0x208],rax
 21d:	48 8b 85 f8 fd ff ff 	mov    rax,QWORD PTR [rbp-0x208]
 224:	48 89 c7             	mov    rdi,rax
 227:	e8 00 00 00 00       	call   22c <main+0x48>
 22c:	48 8d 85 20 fe ff ff 	lea    rax,[rbp-0x1e0]
 233:	48 8d 15 00 00 00 00 	lea    rdx,[rip+0x0]        # 23a <main+0x56>
 23a:	b9 39 00 00 00       	mov    ecx,0x39
 23f:	48 89 c7             	mov    rdi,rax
 242:	48 89 d6             	mov    rsi,rdx
 245:	f3 48 a5             	rep movs QWORD PTR es:[rdi],QWORD PTR ds:[rsi]
 248:	48 89 f2             	mov    rdx,rsi
 24b:	48 89 f8             	mov    rax,rdi
 24e:	8b 0a                	mov    ecx,DWORD PTR [rdx]
 250:	89 08                	mov    DWORD PTR [rax],ecx
 252:	48 8d 40 04          	lea    rax,[rax+0x4]
 256:	48 8d 52 04          	lea    rdx,[rdx+0x4]
 25a:	bf 00 00 00 00       	mov    edi,0x0
 25f:	e8 00 00 00 00       	call   264 <main+0x80>
 264:	89 c7                	mov    edi,eax
 266:	e8 00 00 00 00       	call   26b <main+0x87>
 26b:	c7 85 ec fd ff ff 00 	mov    DWORD PTR [rbp-0x214],0x0
 272:	00 00 00 
 275:	eb 53                	jmp    2ca <main+0xe6>
 277:	c7 85 f0 fd ff ff 00 	mov    DWORD PTR [rbp-0x210],0x0
 27e:	00 00 00 
 281:	eb 2d                	jmp    2b0 <main+0xcc>
 283:	e8 00 00 00 00       	call   288 <main+0xa4>
 288:	99                   	cdq    
 289:	c1 ea 1c             	shr    edx,0x1c
 28c:	01 d0                	add    eax,edx
 28e:	83 e0 0f             	and    eax,0xf
 291:	29 d0                	sub    eax,edx
 293:	83 c0 01             	add    eax,0x1
 296:	89 c6                	mov    esi,eax
 298:	48 8d 3d 00 00 00 00 	lea    rdi,[rip+0x0]        # 29f <main+0xbb>
 29f:	b8 00 00 00 00       	mov    eax,0x0
 2a4:	e8 00 00 00 00       	call   2a9 <main+0xc5>
 2a9:	83 85 f0 fd ff ff 01 	add    DWORD PTR [rbp-0x210],0x1
 2b0:	83 bd f0 fd ff ff 1d 	cmp    DWORD PTR [rbp-0x210],0x1d
 2b7:	7e ca                	jle    283 <main+0x9f>
 2b9:	bf 0a 00 00 00       	mov    edi,0xa
 2be:	e8 00 00 00 00       	call   2c3 <main+0xdf>
 2c3:	83 85 ec fd ff ff 01 	add    DWORD PTR [rbp-0x214],0x1
 2ca:	83 bd ec fd ff ff 09 	cmp    DWORD PTR [rbp-0x214],0x9
 2d1:	7e a4                	jle    277 <main+0x93>
 2d3:	bf 7b 00 00 00       	mov    edi,0x7b
 2d8:	e8 00 00 00 00       	call   2dd <main+0xf9>
 2dd:	c7 85 f4 fd ff ff 00 	mov    DWORD PTR [rbp-0x20c],0x0
 2e4:	00 00 00 
 2e7:	e9 9d 00 00 00       	jmp    389 <main+0x1a5>
 2ec:	8b 85 f4 fd ff ff    	mov    eax,DWORD PTR [rbp-0x20c]
 2f2:	48 98                	cdqe   
 2f4:	0f b6 84 05 20 fe ff 	movzx  eax,BYTE PTR [rbp+rax*1-0x1e0]
 2fb:	ff 
 2fc:	8d 50 fb             	lea    edx,[rax-0x5]
 2ff:	8b 85 f4 fd ff ff    	mov    eax,DWORD PTR [rbp-0x20c]
 305:	48 98                	cdqe   
 307:	88 94 05 20 fe ff ff 	mov    BYTE PTR [rbp+rax*1-0x1e0],dl
 30e:	8b 85 f4 fd ff ff    	mov    eax,DWORD PTR [rbp-0x20c]
 314:	48 98                	cdqe   
 316:	0f b6 84 05 20 fe ff 	movzx  eax,BYTE PTR [rbp+rax*1-0x1e0]
 31d:	ff 
 31e:	83 e0 c0             	and    eax,0xffffffc0
 321:	88 85 eb fd ff ff    	mov    BYTE PTR [rbp-0x215],al
 327:	8b 85 f4 fd ff ff    	mov    eax,DWORD PTR [rbp-0x20c]
 32d:	48 98                	cdqe   
 32f:	0f b6 84 05 20 fe ff 	movzx  eax,BYTE PTR [rbp+rax*1-0x1e0]
 336:	ff 
 337:	0f b6 c0             	movzx  eax,al
 33a:	c1 e0 02             	shl    eax,0x2
 33d:	89 c2                	mov    edx,eax
 33f:	0f b6 85 eb fd ff ff 	movzx  eax,BYTE PTR [rbp-0x215]
 346:	c0 e8 06             	shr    al,0x6
 349:	09 d0                	or     eax,edx
 34b:	89 c2                	mov    edx,eax
 34d:	8b 85 f4 fd ff ff    	mov    eax,DWORD PTR [rbp-0x20c]
 353:	48 98                	cdqe   
 355:	88 94 05 20 fe ff ff 	mov    BYTE PTR [rbp+rax*1-0x1e0],dl
 35c:	8b 85 f4 fd ff ff    	mov    eax,DWORD PTR [rbp-0x20c]
 362:	48 98                	cdqe   
 364:	0f b6 84 05 20 fe ff 	movzx  eax,BYTE PTR [rbp+rax*1-0x1e0]
 36b:	ff 
 36c:	0f b6 c0             	movzx  eax,al
 36f:	89 c6                	mov    esi,eax
 371:	48 8d 3d 00 00 00 00 	lea    rdi,[rip+0x0]        # 378 <main+0x194>
 378:	b8 00 00 00 00       	mov    eax,0x0
 37d:	e8 00 00 00 00       	call   382 <main+0x19e>
 382:	83 85 f4 fd ff ff 01 	add    DWORD PTR [rbp-0x20c],0x1
 389:	8b 85 f4 fd ff ff    	mov    eax,DWORD PTR [rbp-0x20c]
 38f:	3d cb 01 00 00       	cmp    eax,0x1cb
 394:	0f 86 52 ff ff ff    	jbe    2ec <main+0x108>
 39a:	48 8d 3d 00 00 00 00 	lea    rdi,[rip+0x0]        # 3a1 <main+0x1bd>
 3a1:	e8 00 00 00 00       	call   3a6 <main+0x1c2>
 3a6:	b8 00 00 00 00       	mov    eax,0x0
 3ab:	48 8b 4d f8          	mov    rcx,QWORD PTR [rbp-0x8]
 3af:	64 48 33 0c 25 28 00 	xor    rcx,QWORD PTR fs:0x28
 3b6:	00 00 
 3b8:	74 05                	je     3bf <main+0x1db>
 3ba:	e8 00 00 00 00       	call   3bf <main+0x1db>
 3bf:	c9                   	leave  
 3c0:	c3                   	ret    
